target datalayout = "e-m:e-p270:32:32-p271:32:32-p272:64:64-i64:64-i128:128-f80:128-n8:16:32:64-S128"
target triple = "x86_64-pc-linux-gnu"

%struct.jdwpPacket = type { %union.anon }
%union.anon = type { %struct.jdwpCmdPacket }
%struct.jdwpCmdPacket = type { i32, i32, i8, i8, i8, ptr }
%struct.PacketInputStream = type { ptr, i32, i16, %struct.jdwpPacket, ptr }
%struct.PacketOutputStream = type { ptr, i32, ptr, %struct.PacketData, i32, i8, %struct.jdwpPacket, [300 x i8], ptr }
%struct.PacketData = type { i32, ptr, ptr }
%struct.BackendGlobalData = type <{ ptr, ptr, i8, i8, i8, i8, i8, i8, i8, i8, i8, [3 x i8], i32, ptr, ptr, ptr, ptr, ptr, ptr, ptr, ptr, ptr, ptr, ptr, ptr, ptr, i32, %struct.jvmtiCapabilities, i8, [3 x i8], %struct.jvmtiEventCallbacks, ptr, ptr, ptr, ptr, ptr, ptr, ptr, i32, [4 x i8], ptr, i64, i32, [4 x i8], ptr, i32, i32, i8, i8, [6 x i8] }>
%struct.jvmtiCapabilities = type { i64, i64 }
%struct.jvmtiEventCallbacks = type { ptr, ptr, ptr, ptr, ptr, ptr, ptr, ptr, ptr, ptr, ptr, ptr, ptr, ptr, ptr, ptr, ptr, ptr, ptr, ptr, ptr, ptr, ptr, ptr, ptr, ptr, ptr, ptr, ptr, ptr, ptr, ptr, ptr, ptr, ptr, ptr, ptr, ptr, ptr }
%struct.PacketList = type { %struct.jdwpPacket, ptr }

@vmDeathLock = internal global ptr null, align 8
@cmdQueue = internal global ptr null, align 8
@.str.1 = private unnamed_addr constant [24 x i8] c"JDWP Command Queue Lock\00", align 1
@cmdQueueLock = internal global ptr null, align 8
@transportError = internal global i8 0, align 1
@.str.2 = private unnamed_addr constant [20 x i8] c"JDWP Command Reader\00", align 1
@gdata = external global ptr, align 8
@.str.3 = private unnamed_addr constant [5 x i8] c"MISC\00", align 1
@.str.4 = private unnamed_addr constant [52 x i8] c"src/jdk.jdwp.agent/share/native/libjdwp/debugLoop.c\00", align 1
@.str.5 = private unnamed_addr constant [35 x i8] c"Command set %s(%d), command %s(%d)\00", align 1

; Function Attrs: nounwind uwtable
define internal zeroext i8 @lastCommand(ptr noundef %0) #0 {
  %2 = alloca i8, align 1
  %3 = alloca ptr, align 8
  store ptr %0, ptr %3, align 8
  %4 = load ptr, ptr %3, align 8
  %5 = getelementptr inbounds %struct.jdwpCmdPacket, ptr %4, i32 0, i32 3
  %6 = load i8, ptr %5, align 1
  %7 = sext i8 %6 to i32
  %8 = icmp eq i32 %7, 1
  br i1 %8, label %9, label %22

9:                                                ; preds = %1
  %10 = load ptr, ptr %3, align 8
  %11 = getelementptr inbounds %struct.jdwpCmdPacket, ptr %10, i32 0, i32 4
  %12 = load i8, ptr %11, align 2
  %13 = sext i8 %12 to i32
  %14 = icmp eq i32 %13, 6
  br i1 %14, label %21, label %15

15:                                               ; preds = %9
  %16 = load ptr, ptr %3, align 8
  %17 = getelementptr inbounds %struct.jdwpCmdPacket, ptr %16, i32 0, i32 4
  %18 = load i8, ptr %17, align 2
  %19 = sext i8 %18 to i32
  %20 = icmp eq i32 %19, 10
  br i1 %20, label %21, label %22

21:                                               ; preds = %15, %9
  store i8 1, ptr %2, align 1
  br label %23

22:                                               ; preds = %15, %1
  store i8 0, ptr %2, align 1
  br label %23

23:                                               ; preds = %22, %21
  %24 = load i8, ptr %2, align 1
  ret i8 %24
}

; Function Attrs: nounwind uwtable
define internal zeroext i8 @dequeue(ptr noundef %0) #0 {
  %2 = alloca ptr, align 8
  %3 = alloca ptr, align 8
  store ptr %0, ptr %2, align 8
  store ptr null, ptr %3, align 8
  %4 = load ptr, ptr @cmdQueueLock, align 8
  call void @debugMonitorEnter(ptr noundef %4)
  br label %5

5:                                                ; preds = %13, %1
  %6 = load i8, ptr @transportError, align 1
  %7 = icmp ne i8 %6, 0
  br i1 %7, label %11, label %8

8:                                                ; preds = %5
  %9 = load ptr, ptr @cmdQueue, align 8
  %10 = icmp eq ptr %9, null
  br label %11

11:                                               ; preds = %8, %5
  %12 = phi i1 [ false, %5 ], [ %10, %8 ]
  br i1 %12, label %13, label %15

13:                                               ; preds = %11
  %14 = load ptr, ptr @cmdQueueLock, align 8
  call void @debugMonitorWait(ptr noundef %14)
  br label %5, !llvm.loop !9

15:                                               ; preds = %11
  %16 = load ptr, ptr @cmdQueue, align 8
  %17 = icmp ne ptr %16, null
  br i1 %17, label %18, label %23

18:                                               ; preds = %15
  %19 = load ptr, ptr @cmdQueue, align 8
  store ptr %19, ptr %3, align 8
  %20 = load ptr, ptr %3, align 8
  %21 = getelementptr inbounds %struct.PacketList, ptr %20, i32 0, i32 1
  %22 = load ptr, ptr %21, align 8
  store ptr %22, ptr @cmdQueue, align 8
  br label %23

23:                                               ; preds = %18, %15
  %24 = load ptr, ptr @cmdQueueLock, align 8
  call void @debugMonitorExit(ptr noundef %24)
  %25 = load ptr, ptr %3, align 8
  %26 = icmp ne ptr %25, null
  br i1 %26, label %27, label %32

27:                                               ; preds = %23
  %28 = load ptr, ptr %2, align 8
  %29 = load ptr, ptr %3, align 8
  %30 = getelementptr inbounds %struct.PacketList, ptr %29, i32 0, i32 0
  call void @llvm.memcpy.p0.p0.i64(ptr align 8 %28, ptr align 8 %30, i64 24, i1 false)
  %31 = load ptr, ptr %3, align 8
  call void @jvmtiDeallocate(ptr noundef %31)
  br label %32

32:                                               ; preds = %27, %23
  %33 = load ptr, ptr %3, align 8
  %34 = icmp ne ptr %33, null
  %35 = zext i1 %34 to i32
  %36 = trunc i32 %35 to i8
  ret i8 %36
}

; Function Attrs: nounwind uwtable
define hidden void @debugLoop_run() #0 {
  %1 = alloca i8, align 1
  %2 = alloca %struct.jdwpPacket, align 8
  %3 = alloca ptr, align 8
  %4 = alloca ptr, align 8
  %5 = alloca %struct.PacketInputStream, align 8
  %6 = alloca %struct.PacketOutputStream, align 8
  %7 = alloca ptr, align 8
  %8 = alloca ptr, align 8
  %9 = alloca ptr, align 8
  %10 = alloca i8, align 1
  store ptr null, ptr @cmdQueue, align 8
  %11 = call ptr @debugMonitorCreate(ptr noundef @.str.1)
  store ptr %11, ptr @cmdQueueLock, align 8
  store i8 0, ptr @transportError, align 1
  store i8 1, ptr %1, align 1
  store ptr @reader, ptr %3, align 8
  %12 = load ptr, ptr %3, align 8
  %13 = call i32 @spawnNewThread(ptr noundef %12, ptr noundef null, ptr noundef @.str.2)
  call void @standardHandlers_onConnect()
  call void @threadControl_onConnect()
  call void (...) @eventHandler_onConnect()
  br label %14

14:                                               ; preds = %97, %28, %0
  %15 = load i8, ptr %1, align 1
  %16 = icmp ne i8 %15, 0
  br i1 %16, label %17, label %98

17:                                               ; preds = %14
  %18 = call zeroext i8 @dequeue(ptr noundef %2)
  %19 = icmp ne i8 %18, 0
  br i1 %19, label %21, label %20

20:                                               ; preds = %17
  br label %98

21:                                               ; preds = %17
  %22 = getelementptr inbounds %struct.jdwpPacket, ptr %2, i32 0, i32 0
  %23 = getelementptr inbounds %struct.jdwpCmdPacket, ptr %22, i32 0, i32 2
  %24 = load i8, ptr %23, align 8
  %25 = sext i8 %24 to i32
  %26 = and i32 %25, 128
  %27 = icmp ne i32 %26, 0
  br i1 %27, label %28, label %29

28:                                               ; preds = %21
  br label %14, !llvm.loop !6

29:                                               ; preds = %21
  %30 = getelementptr inbounds %struct.jdwpPacket, ptr %2, i32 0, i32 0
  store ptr %30, ptr %4, align 8
  store i8 1, ptr %10, align 1
  %31 = load ptr, ptr @vmDeathLock, align 8
  call void @debugMonitorEnter(ptr noundef %31)
  call void @inStream_init(ptr noundef %5, ptr noundef byval(%struct.jdwpPacket) align 8 %2)
  %32 = call i32 @inStream_id(ptr noundef %5)
  call void @outStream_initReply(ptr noundef %6, i32 noundef %32)
  %33 = load ptr, ptr %4, align 8
  %34 = getelementptr inbounds %struct.jdwpCmdPacket, ptr %33, i32 0, i32 3
  %35 = load i8, ptr %34, align 1
  %36 = sext i8 %35 to i32
  %37 = load ptr, ptr %4, align 8
  %38 = getelementptr inbounds %struct.jdwpCmdPacket, ptr %37, i32 0, i32 4
  %39 = load i8, ptr %38, align 2
  %40 = sext i8 %39 to i32
  %41 = call ptr @debugDispatch_getHandler(i32 noundef %36, i32 noundef %40, ptr noundef %8, ptr noundef %9)
  store ptr %41, ptr %7, align 8
  %42 = load ptr, ptr @gdata, align 8
  %43 = getelementptr inbounds %struct.BackendGlobalData, ptr %42, i32 0, i32 38
  %44 = load i32, ptr %43, align 8
  %45 = and i32 %44, 8
  %46 = icmp ne i32 %45, 0
  br i1 %46, label %47, label %58

47:                                               ; preds = %29
  call void @log_message_begin(ptr noundef @.str.3, ptr noundef @.str.4, i32 noundef 145)
  %48 = load ptr, ptr %8, align 8
  %49 = load ptr, ptr %4, align 8
  %50 = getelementptr inbounds %struct.jdwpCmdPacket, ptr %49, i32 0, i32 3
  %51 = load i8, ptr %50, align 1
  %52 = sext i8 %51 to i32
  %53 = load ptr, ptr %9, align 8
  %54 = load ptr, ptr %4, align 8
  %55 = getelementptr inbounds %struct.jdwpCmdPacket, ptr %54, i32 0, i32 4
  %56 = load i8, ptr %55, align 2
  %57 = sext i8 %56 to i32
  call void (ptr, ...) @log_message_end(ptr noundef @.str.5, ptr noundef %48, i32 noundef %52, ptr noundef %53, i32 noundef %57)
  br label %59

58:                                               ; preds = %29
  br label %59

59:                                               ; preds = %58, %47
  %60 = load ptr, ptr %7, align 8
  %61 = icmp eq ptr %60, null
  br i1 %61, label %62, label %63

62:                                               ; preds = %59
  call void @outStream_setError(ptr noundef %6, i16 noundef zeroext 99)
  br label %80

63:                                               ; preds = %59
  %64 = load ptr, ptr @gdata, align 8
  %65 = getelementptr inbounds %struct.BackendGlobalData, ptr %64, i32 0, i32 2
  %66 = load volatile i8, ptr %65, align 8
  %67 = zext i8 %66 to i32
  %68 = icmp ne i32 %67, 0
  br i1 %68, label %69, label %76

69:                                               ; preds = %63
  %70 = load ptr, ptr %4, align 8
  %71 = getelementptr inbounds %struct.jdwpCmdPacket, ptr %70, i32 0, i32 3
  %72 = load i8, ptr %71, align 1
  %73 = sext i8 %72 to i32
  %74 = icmp ne i32 %73, 1
  br i1 %74, label %75, label %76

75:                                               ; preds = %69
  call void @outStream_setError(ptr noundef %6, i16 noundef zeroext 112)
  br label %79

76:                                               ; preds = %69, %63
  %77 = load ptr, ptr %7, align 8
  %78 = call zeroext i8 %77(ptr noundef %5, ptr noundef %6)
  store i8 %78, ptr %10, align 1
  br label %79

79:                                               ; preds = %76, %75
  br label %80

80:                                               ; preds = %79, %62
  %81 = load i8, ptr %10, align 1
  %82 = icmp ne i8 %81, 0
  br i1 %82, label %83, label %89

83:                                               ; preds = %80
  %84 = call zeroext i16 @inStream_error(ptr noundef %5)
  %85 = icmp ne i16 %84, 0
  br i1 %85, label %86, label %88

86:                                               ; preds = %83
  %87 = call zeroext i16 @inStream_error(ptr noundef %5)
  call void @outStream_setError(ptr noundef %6, i16 noundef zeroext %87)
  br label %88

88:                                               ; preds = %86, %83
  call void @outStream_sendReply(ptr noundef %6)
  br label %89

89:                                               ; preds = %88, %80
  %90 = load ptr, ptr @vmDeathLock, align 8
  call void @debugMonitorExit(ptr noundef %90)
  call void @inStream_destroy(ptr noundef %5)
  call void @outStream_destroy(ptr noundef %6)
  %91 = load ptr, ptr %4, align 8
  %92 = call zeroext i8 @lastCommand(ptr noundef %91)
  %93 = icmp ne i8 %92, 0
  %94 = xor i1 %93, true
  %95 = zext i1 %94 to i32
  %96 = trunc i32 %95 to i8
  store i8 %96, ptr %1, align 1
  br label %97

97:                                               ; preds = %89
  br label %14, !llvm.loop !6

98:                                               ; preds = %20, %14
  call void @threadControl_onDisconnect()
  call void @standardHandlers_onDisconnect()
  call void @transport_close()
  %99 = load ptr, ptr @cmdQueueLock, align 8
  call void @debugMonitorDestroy(ptr noundef %99)
  %100 = load ptr, ptr @gdata, align 8
  %101 = getelementptr inbounds %struct.BackendGlobalData, ptr %100, i32 0, i32 2
  %102 = load volatile i8, ptr %101, align 8
  %103 = icmp ne i8 %102, 0
  br i1 %103, label %106, label %104

104:                                              ; preds = %98
  %105 = call ptr @getEnv()
  call void @debugInit_reset(ptr noundef %105)
  br label %106

106:                                              ; preds = %104, %98
  ret void
}