; Function Attrs: nounwind uwtable
define hidden void @debugLoop_run() local_unnamed_addr #0 {
  %1 = alloca %struct.jdwpPacket, align 8
  %2 = alloca %struct.PacketInputStream, align 8
  %3 = alloca %struct.PacketOutputStream, align 8
  %4 = alloca ptr, align 8
  %5 = alloca ptr, align 8
  store ptr null, ptr @cmdQueue, align 8
  %6 = tail call ptr @debugMonitorCreate(ptr noundef nonnull @.str.1) #3
  store ptr %6, ptr @cmdQueueLock, align 8
  store i1 false, ptr @transportError, align 1
  %7 = tail call i32 @spawnNewThread(ptr noundef nonnull @reader, ptr noundef null, ptr noundef nonnull @.str.2) #3
  tail call void @standardHandlers_onConnect() #3
  tail call void @threadControl_onConnect() #3
  tail call void (...) @eventHandler_onConnect() #3
  %8 = getelementptr inbounds i8, ptr %1, i64 8
  %9 = getelementptr inbounds i8, ptr %1, i64 9
  %10 = getelementptr inbounds i8, ptr %1, i64 10
  br label %11

11:                                               ; preds = %0, %.backedge
  %12 = load ptr, ptr @cmdQueueLock, align 8
  call void @debugMonitorEnter(ptr noundef %12) #3
  %.b10.i = load i1, ptr @transportError, align 1
  %13 = load ptr, ptr @cmdQueue, align 8
  %14 = icmp ne ptr %13, null
  %.not711.i = select i1 %.b10.i, i1 true, i1 %14
  br i1 %.not711.i, label %._crit_edge.i, label %.lr.ph.i

.lr.ph.i:                                         ; preds = %11, %.lr.ph.i
  %15 = load ptr, ptr @cmdQueueLock, align 8
  call void @debugMonitorWait(ptr noundef %15) #3
  %.b.i = load i1, ptr @transportError, align 1
  %16 = load ptr, ptr @cmdQueue, align 8
  %17 = icmp ne ptr %16, null
  %.not7.i = select i1 %.b.i, i1 true, i1 %17
  br i1 %.not7.i, label %._crit_edge.i, label %.lr.ph.i, !llvm.loop !6

._crit_edge.i:                                    ; preds = %.lr.ph.i, %11
  %.lcssa.i = phi ptr [ %13, %11 ], [ %16, %.lr.ph.i ]
  %.not.i.not = icmp eq ptr %.lcssa.i, null
  br i1 %.not.i.not, label %dequeue.exit.thread, label %19

dequeue.exit.thread:                              ; preds = %._crit_edge.i
  %18 = load ptr, ptr @cmdQueueLock, align 8
  call void @debugMonitorExit(ptr noundef %18) #3
  br label %.loopexit

19:                                               ; preds = %._crit_edge.i
  %20 = getelementptr inbounds i8, ptr %.lcssa.i, i64 24
  %21 = load ptr, ptr %20, align 8
  store ptr %21, ptr @cmdQueue, align 8
  %22 = load ptr, ptr @cmdQueueLock, align 8
  call void @debugMonitorExit(ptr noundef %22) #3
  call void @llvm.memcpy.p0.p0.i64(ptr noundef nonnull align 8 dereferenceable(24) %1, ptr noundef nonnull align 8 dereferenceable(24) %.lcssa.i, i64 24, i1 false)
  call void @jvmtiDeallocate(ptr noundef nonnull %.lcssa.i) #3
  %23 = load i8, ptr %8, align 8
  %.not14 = icmp sgt i8 %23, -1
  br i1 %.not14, label %24, label %.backedge

24:                                               ; preds = %19
  %25 = load ptr, ptr @vmDeathLock, align 8
  call void @debugMonitorEnter(ptr noundef %25) #3
  call void @inStream_init(ptr noundef nonnull %2, ptr noundef nonnull byval(%struct.jdwpPacket) align 8 %1) #3
  %26 = call i32 @inStream_id(ptr noundef nonnull %2) #3
  call void @outStream_initReply(ptr noundef nonnull %3, i32 noundef %26) #3
  %27 = load i8, ptr %9, align 1
  %28 = sext i8 %27 to i32
  %29 = load i8, ptr %10, align 2
  %30 = sext i8 %29 to i32
  %31 = call ptr @debugDispatch_getHandler(i32 noundef %28, i32 noundef %30, ptr noundef nonnull %4, ptr noundef nonnull %5) #3
  %32 = load ptr, ptr @gdata, align 8
  %33 = getelementptr inbounds i8, ptr %32, i64 528
  %34 = load i32, ptr %33, align 8
  %35 = and i32 %34, 8
  %.not15 = icmp eq i32 %35, 0
  br i1 %.not15, label %43, label %36

36:                                               ; preds = %24
  call void @log_message_begin(ptr noundef nonnull @.str.3, ptr noundef nonnull @.str.4, i32 noundef 145) #3
  %37 = load ptr, ptr %4, align 8
  %38 = load i8, ptr %9, align 1
  %39 = sext i8 %38 to i32
  %40 = load ptr, ptr %5, align 8
  %41 = load i8, ptr %10, align 2
  %42 = sext i8 %41 to i32
  call void (ptr, ...) @log_message_end(ptr noundef nonnull @.str.5, ptr noundef %37, i32 noundef %39, ptr noundef %40, i32 noundef %42) #3
  br label %43

43:                                               ; preds = %24, %36
  %44 = icmp eq ptr %31, null
  br i1 %44, label %.thread.sink.split, label %45

45:                                               ; preds = %43
  %46 = load ptr, ptr @gdata, align 8
  %47 = getelementptr inbounds i8, ptr %46, i64 16
  %48 = load volatile i8, ptr %47, align 8
  %.not16 = icmp eq i8 %48, 0
  %49 = load i8, ptr %9, align 1
  %.not17 = icmp eq i8 %49, 1
  %or.cond = select i1 %.not16, i1 true, i1 %.not17
  br i1 %or.cond, label %50, label %.thread.sink.split

50:                                               ; preds = %45
  %51 = call zeroext i8 %31(ptr noundef nonnull %2, ptr noundef nonnull %3) #3
  %.not18 = icmp eq i8 %51, 0
  br i1 %.not18, label %56, label %.thread

.thread.sink.split:                               ; preds = %45, %43
  %.sink = phi i16 [ 99, %43 ], [ 112, %45 ]
  call void @outStream_setError(ptr noundef nonnull %3, i16 noundef zeroext %.sink) #3
  br label %.thread

.thread:                                          ; preds = %.thread.sink.split, %50
  %52 = call zeroext i16 @inStream_error(ptr noundef nonnull %2) #3
  %.not19 = icmp eq i16 %52, 0
  br i1 %.not19, label %55, label %53

53:                                               ; preds = %.thread
  %54 = call zeroext i16 @inStream_error(ptr noundef nonnull %2) #3
  call void @outStream_setError(ptr noundef nonnull %3, i16 noundef zeroext %54) #3
  br label %55

55:                                               ; preds = %53, %.thread
  call void @outStream_sendReply(ptr noundef nonnull %3) #3
  br label %56

56:                                               ; preds = %55, %50
  %57 = load ptr, ptr @vmDeathLock, align 8
  call void @debugMonitorExit(ptr noundef %57) #3
  call void @inStream_destroy(ptr noundef nonnull %2) #3
  call void @outStream_destroy(ptr noundef nonnull %3) #3
  %.val = load i8, ptr %9, align 1
  %.val21 = load i8, ptr %10, align 2
  %58 = icmp ne i8 %.val, 1
  %59 = add i8 %.val21, -6
  %switch.and.i = and i8 %59, -5
  %switch.selectcmp.i = icmp ne i8 %switch.and.i, 0
  %narrow.i.not = select i1 %58, i1 true, i1 %switch.selectcmp.i
  %60 = zext i1 %narrow.i.not to i8
  br label %.backedge

.backedge:                                        ; preds = %56, %19
  %.010.be = phi i8 [ 1, %19 ], [ %60, %56 ]
  %.not = icmp eq i8 %.010.be, 0
  br i1 %.not, label %.loopexit, label %11, !llvm.loop !8

.loopexit:                                        ; preds = %.backedge, %dequeue.exit.thread
  call void @threadControl_onDisconnect() #3
  call void @standardHandlers_onDisconnect() #3
  call void @transport_close() #3
  %61 = load ptr, ptr @cmdQueueLock, align 8
  call void @debugMonitorDestroy(ptr noundef %61) #3
  %62 = load ptr, ptr @gdata, align 8
  %63 = getelementptr inbounds i8, ptr %62, i64 16
  %64 = load volatile i8, ptr %63, align 8
  %.not13 = icmp eq i8 %64, 0
  br i1 %.not13, label %65, label %67

65:                                               ; preds = %.loopexit
  %66 = call ptr @getEnv() #3
  call void @debugInit_reset(ptr noundef %66) #3
  br label %67

67:                                               ; preds = %65, %.loopexit
  ret void
}